target datalayout = "e-m:e-p270:32:32-p271:32:32-p272:64:64-i64:64-i128:128-f80:128-n8:16:32:64-S128"
target triple = "x86_64-pc-linux-gnu"

; Function Attrs: nounwind uwtable
define dso_local i32 @rdbEncodeInteger(i64 noundef %0, ptr noundef %1) #0 {
  %3 = alloca i32, align 4
  %4 = alloca i64, align 8
  %5 = alloca ptr, align 8
  store i64 %0, ptr %4, align 8, !tbaa !68
  store ptr %1, ptr %5, align 8, !tbaa !9
  %6 = load i64, ptr %4, align 8, !tbaa !68
  %7 = icmp sge i64 %6, -128
  br i1 %7, label %8, label %19

8:                                                ; preds = %2
  %9 = load i64, ptr %4, align 8, !tbaa !68
  %10 = icmp sle i64 %9, 127
  br i1 %10, label %11, label %19

11:                                               ; preds = %8
  %12 = load ptr, ptr %5, align 8, !tbaa !9
  %13 = getelementptr inbounds i8, ptr %12, i64 0
  store i8 -64, ptr %13, align 1, !tbaa !65
  %14 = load i64, ptr %4, align 8, !tbaa !68
  %15 = and i64 %14, 255
  %16 = trunc i64 %15 to i8
  %17 = load ptr, ptr %5, align 8, !tbaa !9
  %18 = getelementptr inbounds i8, ptr %17, i64 1
  store i8 %16, ptr %18, align 1, !tbaa !65
  store i32 2, ptr %3, align 4
  br label %72

19:                                               ; preds = %8, %2
  %20 = load i64, ptr %4, align 8, !tbaa !68
  %21 = icmp sge i64 %20, -32768
  br i1 %21, label %22, label %39

22:                                               ; preds = %19
  %23 = load i64, ptr %4, align 8, !tbaa !68
  %24 = icmp sle i64 %23, 32767
  br i1 %24, label %25, label %39

25:                                               ; preds = %22
  %26 = load ptr, ptr %5, align 8, !tbaa !9
  %27 = getelementptr inbounds i8, ptr %26, i64 0
  store i8 -63, ptr %27, align 1, !tbaa !65
  %28 = load i64, ptr %4, align 8, !tbaa !68
  %29 = and i64 %28, 255
  %30 = trunc i64 %29 to i8
  %31 = load ptr, ptr %5, align 8, !tbaa !9
  %32 = getelementptr inbounds i8, ptr %31, i64 1
  store i8 %30, ptr %32, align 1, !tbaa !65
  %33 = load i64, ptr %4, align 8, !tbaa !68
  %34 = ashr i64 %33, 8
  %35 = and i64 %34, 255
  %36 = trunc i64 %35 to i8
  %37 = load ptr, ptr %5, align 8, !tbaa !9
  %38 = getelementptr inbounds i8, ptr %37, i64 2
  store i8 %36, ptr %38, align 1, !tbaa !65
  store i32 3, ptr %3, align 4
  br label %72

39:                                               ; preds = %22, %19
  %40 = load i64, ptr %4, align 8, !tbaa !68
  %41 = icmp sge i64 %40, -2147483648
  br i1 %41, label %42, label %71

42:                                               ; preds = %39
  %43 = load i64, ptr %4, align 8, !tbaa !68
  %44 = icmp sle i64 %43, 2147483647
  br i1 %44, label %45, label %71

45:                                               ; preds = %42
  %46 = load ptr, ptr %5, align 8, !tbaa !9
  %47 = getelementptr inbounds i8, ptr %46, i64 0
  store i8 -62, ptr %47, align 1, !tbaa !65
  %48 = load i64, ptr %4, align 8, !tbaa !68
  %49 = and i64 %48, 255
  %50 = trunc i64 %49 to i8
  %51 = load ptr, ptr %5, align 8, !tbaa !9
  %52 = getelementptr inbounds i8, ptr %51, i64 1
  store i8 %50, ptr %52, align 1, !tbaa !65
  %53 = load i64, ptr %4, align 8, !tbaa !68
  %54 = ashr i64 %53, 8
  %55 = and i64 %54, 255
  %56 = trunc i64 %55 to i8
  %57 = load ptr, ptr %5, align 8, !tbaa !9
  %58 = getelementptr inbounds i8, ptr %57, i64 2
  store i8 %56, ptr %58, align 1, !tbaa !65
  %59 = load i64, ptr %4, align 8, !tbaa !68
  %60 = ashr i64 %59, 16
  %61 = and i64 %60, 255
  %62 = trunc i64 %61 to i8
  %63 = load ptr, ptr %5, align 8, !tbaa !9
  %64 = getelementptr inbounds i8, ptr %63, i64 3
  store i8 %62, ptr %64, align 1, !tbaa !65
  %65 = load i64, ptr %4, align 8, !tbaa !68
  %66 = ashr i64 %65, 24
  %67 = and i64 %66, 255
  %68 = trunc i64 %67 to i8
  %69 = load ptr, ptr %5, align 8, !tbaa !9
  %70 = getelementptr inbounds i8, ptr %69, i64 4
  store i8 %68, ptr %70, align 1, !tbaa !65
  store i32 5, ptr %3, align 4
  br label %72

71:                                               ; preds = %42, %39
  store i32 0, ptr %3, align 4
  br label %72

72:                                               ; preds = %71, %45, %25, %11
  %73 = load i32, ptr %3, align 4
  ret i32 %73
}