; Function Attrs: mustprogress nofree norecurse nosync nounwind willreturn memory(argmem: write) uwtable
define dso_local range(i32 0, 6) i32 @rdbEncodeInteger(i64 noundef %0, ptr noundef writeonly captures(none) %1) local_unnamed_addr #7 {
  %3 = add i64 %0, 128
  %or.cond = icmp ult i64 %3, 256
  br i1 %or.cond, label %4, label %5

4:                                                ; preds = %2
  store i8 -64, ptr %1, align 1, !tbaa !59
  br label %.sink.split

5:                                                ; preds = %2
  %6 = add i64 %0, 32768
  %or.cond3 = icmp ult i64 %6, 65536
  br i1 %or.cond3, label %7, label %11

7:                                                ; preds = %5
  store i8 -63, ptr %1, align 1, !tbaa !59
  %8 = trunc i64 %0 to i8
  %9 = getelementptr inbounds nuw i8, ptr %1, i64 1
  store i8 %8, ptr %9, align 1, !tbaa !59
  %10 = lshr i64 %0, 8
  br label %.sink.split

11:                                               ; preds = %5
  %12 = add i64 %0, 2147483648
  %or.cond5 = icmp ult i64 %12, 4294967296
  br i1 %or.cond5, label %13, label %25

13:                                               ; preds = %11
  store i8 -62, ptr %1, align 1, !tbaa !59
  %14 = trunc i64 %0 to i8
  %15 = getelementptr inbounds nuw i8, ptr %1, i64 1
  store i8 %14, ptr %15, align 1, !tbaa !59
  %16 = lshr i64 %0, 8
  %17 = trunc i64 %16 to i8
  %18 = getelementptr inbounds nuw i8, ptr %1, i64 2
  store i8 %17, ptr %18, align 1, !tbaa !59
  %19 = lshr i64 %0, 16
  %20 = trunc i64 %19 to i8
  %21 = getelementptr inbounds nuw i8, ptr %1, i64 3
  store i8 %20, ptr %21, align 1, !tbaa !59
  %22 = lshr i64 %0, 24
  br label %.sink.split

.sink.split:                                      ; preds = %4, %7, %13
  %.sink31 = phi i64 [ %22, %13 ], [ %10, %7 ], [ %0, %4 ]
  %.sink30 = phi i64 [ 4, %13 ], [ 2, %7 ], [ 1, %4 ]
  %.0.ph = phi i32 [ 5, %13 ], [ 3, %7 ], [ 2, %4 ]
  %23 = trunc i64 %.sink31 to i8
  %24 = getelementptr inbounds nuw i8, ptr %1, i64 %.sink30
  store i8 %23, ptr %24, align 1, !tbaa !59
  br label %25

25:                                               ; preds = %.sink.split, %11
  %.0 = phi i32 [ 0, %11 ], [ %.0.ph, %.sink.split ]
  ret i32 %.0
}